(dp0
Vengine
p1
S'pdflatex'
p2
sVpackages
p3
c__builtin__
set
p4
((lp5
Vhyperref
p6
aVonlyamsmath
p7
aVsavetrees
p8
aVamsmath
p9
aVbabel
p10
aVshowlabels
p11
aVamsthm
p12
aVmicrotype
p13
aVfontenc
p14
aVgraphicx
p15
aVamsfonts
p16
aVblindtext
p17
aVinputenc
p18
aVtodonotes
p19
aVamssymb
p20
atp21
Rp22
sVfiles_with_guttermarks
p23
g4
((lp24
S'2_Snell.tex'
p25
aV/Users/jackburker/Documents/BIZ/ncsu/py202/tex/./2_Snell.tex
p26
atp27
Rp28
sVsynctex
p29
I01
s.