(dp0
Vengine
p1
S'pdflatex'
p2
sVpackages
p3
c__builtin__
set
p4
((lp5
Vhyperref
p6
aVfontenc
p7
aVsavetrees
p8
aVamsmath
p9
aVbabel
p10
aVshowlabels
p11
aVinputenc
p12
aVamsthm
p13
aVmicrotype
p14
aVonlyamsmath
p15
aVamsfonts
p16
aVblindtext
p17
aVgraphicx
p18
aVtodonotes
p19
aVamssymb
p20
atp21
Rp22
sVfiles_with_guttermarks
p23
g4
((lp24
S'2_Optics_and_Polarization.tex'
p25
atp26
Rp27
sVsynctex
p28
I01
s.